target datalayout = "e-m:e-p270:32:32-p271:32:32-p272:64:64-i64:64-i128:128-f80:128-n8:16:32:64-S128"
target triple = "x86_64-pc-linux-gnu"

%struct.rb_data_type_struct = type { ptr, %struct.anon, ptr, ptr, i64 }
%struct.anon = type { ptr, ptr, ptr, ptr, [1 x ptr] }
%struct.rb_io_buffer = type { ptr, i64, i32, i64 }
%struct.RBasic = type { i64, i64 }

@rb_io_buffer_type = internal constant %struct.rb_data_type_struct { ptr @.str.108, %struct.anon { ptr @rb_io_buffer_type_mark, ptr @rb_io_buffer_type_free, ptr @rb_io_buffer_type_size, ptr null, [1 x ptr] zeroinitializer }, ptr null, ptr null, i64 35 }, align 8
@.str = private unnamed_addr constant [3 x i8] c"#<\00", align 1
@.str.1 = private unnamed_addr constant [8 x i8] c" %p+%zd\00", align 1
@.str.2 = private unnamed_addr constant [6 x i8] c" NULL\00", align 1
@.str.3 = private unnamed_addr constant [10 x i8] c" EXTERNAL\00", align 1
@.str.4 = private unnamed_addr constant [10 x i8] c" INTERNAL\00", align 1
@.str.5 = private unnamed_addr constant [8 x i8] c" MAPPED\00", align 1
@.str.6 = private unnamed_addr constant [6 x i8] c" FILE\00", align 1
@.str.7 = private unnamed_addr constant [8 x i8] c" SHARED\00", align 1
@.str.8 = private unnamed_addr constant [8 x i8] c" LOCKED\00", align 1
@.str.9 = private unnamed_addr constant [9 x i8] c" PRIVATE\00", align 1
@.str.10 = private unnamed_addr constant [10 x i8] c" READONLY\00", align 1
@.str.11 = private unnamed_addr constant [7 x i8] c" SLICE\00", align 1
@.str.12 = private unnamed_addr constant [9 x i8] c" INVALID\00", align 1
@.str.13 = private unnamed_addr constant [2 x i8] c">\00", align 1
@rb_cFalseClass = external global i64, align 8
@rb_cNilClass = external global i64, align 8
@rb_cTrueClass = external global i64, align 8
@rb_cInteger = external global i64, align 8
@rb_cSymbol = external global i64, align 8
@rb_cFloat = external global i64, align 8

; Function Attrs: inlinehint nounwind sspstrong willreturn memory(none) uwtable
define internal zeroext i1 @RB_IMMEDIATE_P(i64 noundef %0) #11 {
  %2 = alloca i64, align 8
  store i64 %0, ptr %2, align 8, !tbaa !20
  %3 = load i64, ptr %2, align 8, !tbaa !20
  %4 = and i64 %3, 7
  %5 = icmp ne i64 %4, 0
  ret i1 %5
}

; Function Attrs: inlinehint nounwind sspstrong willreturn memory(none) uwtable
define internal zeroext i1 @RB_FLONUM_P(i64 noundef %0) #11 {
  %2 = alloca i64, align 8
  store i64 %0, ptr %2, align 8, !tbaa !20
  %3 = load i64, ptr %2, align 8, !tbaa !20
  %4 = and i64 %3, 3
  %5 = icmp eq i64 %4, 2
  ret i1 %5
}

; Function Attrs: inlinehint nounwind sspstrong willreturn memory(none) uwtable
define internal zeroext i1 @RB_STATIC_SYM_P(i64 noundef %0) #11 {
  %2 = alloca i64, align 8
  %3 = alloca i64, align 8
  store i64 %0, ptr %2, align 8, !tbaa !20
  call void @llvm.lifetime.start.p0(i64 8, ptr %3) #22
  store i64 255, ptr %3, align 8, !tbaa !20
  %4 = load i64, ptr %2, align 8, !tbaa !20
  %5 = and i64 %4, 255
  %6 = icmp eq i64 %5, 12
  call void @llvm.lifetime.end.p0(i64 8, ptr %3) #22
  ret i1 %6
}

; Function Attrs: inlinehint nounwind sspstrong willreturn memory(none) uwtable
define internal zeroext i1 @RB_FIXNUM_P(i64 noundef %0) #11 {
  %2 = alloca i64, align 8
  store i64 %0, ptr %2, align 8, !tbaa !20
  %3 = load i64, ptr %2, align 8, !tbaa !20
  %4 = and i64 %3, 1
  %5 = icmp ne i64 %4, 0
  ret i1 %5
}

; Function Attrs: inlinehint nounwind sspstrong willreturn memory(read) uwtable
define internal i64 @RBASIC_CLASS(i64 noundef %0) #5 {
  %2 = alloca i64, align 8
  store i64 %0, ptr %2, align 8, !tbaa !20
  %3 = load i64, ptr %2, align 8, !tbaa !20
  %4 = inttoptr i64 %3 to ptr
  %5 = getelementptr inbounds nuw %struct.RBasic, ptr %4, i32 0, i32 1
  %6 = load i64, ptr %5, align 8, !tbaa !100
  ret i64 %6
}

; Function Attrs: inlinehint nounwind sspstrong willreturn memory(none) uwtable
define internal zeroext i1 @RB_SPECIAL_CONST_P(i64 noundef %0) #11 {
  %2 = alloca i64, align 8
  store i64 %0, ptr %2, align 8, !tbaa !20
  %3 = load i64, ptr %2, align 8, !tbaa !20
  %4 = icmp eq i64 %3, 0
  br i1 %4, label %8, label %5

5:                                                ; preds = %1
  %6 = load i64, ptr %2, align 8, !tbaa !20
  %7 = call zeroext i1 @RB_IMMEDIATE_P(i64 noundef %6) #24
  br label %8

8:                                                ; preds = %5, %1
  %9 = phi i1 [ true, %1 ], [ %7, %5 ]
  ret i1 %9
}

; Function Attrs: inlinehint nounwind sspstrong uwtable
define internal i64 @rbimpl_strlen(ptr noundef nonnull %0) #3 {
  %2 = alloca ptr, align 8
  store ptr %0, ptr %2, align 8, !tbaa !35
  %3 = load ptr, ptr %2, align 8, !tbaa !35
  %4 = call i64 @strlen(ptr noundef %3) #23
  ret i64 %4
}

; Function Attrs: nounwind sspstrong uwtable
define internal i32 @io_buffer_validate(ptr noundef %0) #0 {
  %2 = alloca i32, align 4
  %3 = alloca ptr, align 8
  store ptr %0, ptr %3, align 8, !tbaa !11
  %4 = load ptr, ptr %3, align 8, !tbaa !11
  %5 = getelementptr inbounds nuw %struct.rb_io_buffer, ptr %4, i32 0, i32 3
  %6 = load i64, ptr %5, align 8, !tbaa !13
  %7 = icmp ne i64 %6, 4
  br i1 %7, label %8, label %19

8:                                                ; preds = %1
  %9 = load ptr, ptr %3, align 8, !tbaa !11
  %10 = getelementptr inbounds nuw %struct.rb_io_buffer, ptr %9, i32 0, i32 3
  %11 = load i64, ptr %10, align 8, !tbaa !13
  %12 = load ptr, ptr %3, align 8, !tbaa !11
  %13 = getelementptr inbounds nuw %struct.rb_io_buffer, ptr %12, i32 0, i32 0
  %14 = load ptr, ptr %13, align 8, !tbaa !17
  %15 = load ptr, ptr %3, align 8, !tbaa !11
  %16 = getelementptr inbounds nuw %struct.rb_io_buffer, ptr %15, i32 0, i32 1
  %17 = load i64, ptr %16, align 8, !tbaa !19
  %18 = call i32 @io_buffer_validate_slice(i64 noundef %11, ptr noundef %14, i64 noundef %17)
  store i32 %18, ptr %2, align 4
  br label %20

19:                                               ; preds = %1
  store i32 1, ptr %2, align 4
  br label %20

20:                                               ; preds = %19, %8
  %21 = load i32, ptr %2, align 4
  ret i32 %21
}

; Function Attrs: inlinehint nounwind sspstrong uwtable
define internal i64 @rbimpl_str_cat_cstr(i64 noundef %0, ptr noundef nonnull %1) #3 {
  %3 = alloca i64, align 8
  %4 = alloca ptr, align 8
  %5 = alloca i64, align 8
  store i64 %0, ptr %3, align 8, !tbaa !20
  store ptr %1, ptr %4, align 8, !tbaa !35
  call void @llvm.lifetime.start.p0(i64 8, ptr %5) #22
  %6 = load ptr, ptr %4, align 8, !tbaa !35
  %7 = call i64 @rbimpl_strlen(ptr noundef %6)
  store i64 %7, ptr %5, align 8, !tbaa !20
  %8 = load i64, ptr %3, align 8, !tbaa !20
  %9 = load ptr, ptr %4, align 8, !tbaa !35
  %10 = load i64, ptr %5, align 8, !tbaa !20
  %11 = call i64 @rb_str_cat(i64 noundef %8, ptr noundef %9, i64 noundef %10)
  call void @llvm.lifetime.end.p0(i64 8, ptr %5) #22
  ret i64 %11
}

; Function Attrs: inlinehint nounwind sspstrong willreturn memory(read) uwtable
define internal i64 @rb_class_of(i64 noundef %0) #5 {
  %2 = alloca i64, align 8
  %3 = alloca i64, align 8
  store i64 %0, ptr %3, align 8, !tbaa !20
  %4 = load i64, ptr %3, align 8, !tbaa !20
  %5 = call zeroext i1 @RB_SPECIAL_CONST_P(i64 noundef %4) #24
  br i1 %5, label %9, label %6

6:                                                ; preds = %1
  %7 = load i64, ptr %3, align 8, !tbaa !20
  %8 = call i64 @RBASIC_CLASS(i64 noundef %7) #23
  store i64 %8, ptr %2, align 8
  br label %46

9:                                                ; preds = %1
  %10 = load i64, ptr %3, align 8, !tbaa !20
  %11 = icmp eq i64 %10, 0
  br i1 %11, label %12, label %14

12:                                               ; preds = %9
  %13 = load i64, ptr @rb_cFalseClass, align 8, !tbaa !20
  store i64 %13, ptr %2, align 8
  br label %46

14:                                               ; preds = %9
  %15 = load i64, ptr %3, align 8, !tbaa !20
  %16 = icmp eq i64 %15, 4
  br i1 %16, label %17, label %19

17:                                               ; preds = %14
  %18 = load i64, ptr @rb_cNilClass, align 8, !tbaa !20
  store i64 %18, ptr %2, align 8
  br label %46

19:                                               ; preds = %14
  %20 = load i64, ptr %3, align 8, !tbaa !20
  %21 = icmp eq i64 %20, 20
  br i1 %21, label %22, label %24

22:                                               ; preds = %19
  %23 = load i64, ptr @rb_cTrueClass, align 8, !tbaa !20
  store i64 %23, ptr %2, align 8
  br label %46

24:                                               ; preds = %19
  %25 = load i64, ptr %3, align 8, !tbaa !20
  %26 = call zeroext i1 @RB_FIXNUM_P(i64 noundef %25) #24
  br i1 %26, label %27, label %29

27:                                               ; preds = %24
  %28 = load i64, ptr @rb_cInteger, align 8, !tbaa !20
  store i64 %28, ptr %2, align 8
  br label %46

29:                                               ; preds = %24
  %30 = load i64, ptr %3, align 8, !tbaa !20
  %31 = call zeroext i1 @RB_STATIC_SYM_P(i64 noundef %30) #24
  br i1 %31, label %32, label %34

32:                                               ; preds = %29
  %33 = load i64, ptr @rb_cSymbol, align 8, !tbaa !20
  store i64 %33, ptr %2, align 8
  br label %46

34:                                               ; preds = %29
  %35 = load i64, ptr %3, align 8, !tbaa !20
  %36 = call zeroext i1 @RB_FLONUM_P(i64 noundef %35) #24
  br i1 %36, label %37, label %39

37:                                               ; preds = %34
  %38 = load i64, ptr @rb_cFloat, align 8, !tbaa !20
  store i64 %38, ptr %2, align 8
  br label %46

39:                                               ; preds = %34
  br label %40

40:                                               ; preds = %39
  br label %41

41:                                               ; preds = %40
  br label %42

42:                                               ; preds = %41
  br label %43

43:                                               ; preds = %42
  br label %44

44:                                               ; preds = %43
  br label %45

45:                                               ; preds = %44
  unreachable

46:                                               ; preds = %37, %32, %27, %22, %17, %12, %6
  %47 = load i64, ptr %2, align 8
  ret i64 %47
}

; Function Attrs: inlinehint nounwind sspstrong uwtable
define internal i64 @rbimpl_str_new_cstr(ptr noundef nonnull %0) #3 {
  %2 = alloca ptr, align 8
  %3 = alloca i64, align 8
  store ptr %0, ptr %2, align 8, !tbaa !35
  call void @llvm.lifetime.start.p0(i64 8, ptr %3) #22
  %4 = load ptr, ptr %2, align 8, !tbaa !35
  %5 = call i64 @rbimpl_strlen(ptr noundef %4)
  store i64 %5, ptr %3, align 8, !tbaa !20
  %6 = load ptr, ptr %2, align 8, !tbaa !35
  %7 = load i64, ptr %3, align 8, !tbaa !20
  %8 = call i64 @rb_str_new_static(ptr noundef %6, i64 noundef %7)
  call void @llvm.lifetime.end.p0(i64 8, ptr %3) #22
  ret i64 %8
}

; Function Attrs: nounwind sspstrong uwtable
define hidden i64 @rb_io_buffer_to_s(i64 noundef %0) #0 {
  %2 = alloca i64, align 8
  %3 = alloca ptr, align 8
  %4 = alloca i64, align 8
  store i64 %0, ptr %2, align 8, !tbaa !20
  call void @llvm.lifetime.start.p0(i64 8, ptr %3) #22
  store ptr null, ptr %3, align 8, !tbaa !11
  %5 = load i64, ptr %2, align 8, !tbaa !20
  %6 = call ptr @rb_check_typeddata(i64 noundef %5, ptr noundef @rb_io_buffer_type)
  store ptr %6, ptr %3, align 8, !tbaa !11
  call void @llvm.lifetime.start.p0(i64 8, ptr %4) #22
  %7 = call i64 @rbimpl_str_new_cstr(ptr noundef @.str)
  store i64 %7, ptr %4, align 8, !tbaa !20
  %8 = load i64, ptr %4, align 8, !tbaa !20
  %9 = load i64, ptr %2, align 8, !tbaa !20
  %10 = call i64 @rb_class_of(i64 noundef %9) #23
  %11 = call i64 @rb_class_name(i64 noundef %10)
  %12 = call i64 @rb_str_append(i64 noundef %8, i64 noundef %11)
  %13 = load i64, ptr %4, align 8, !tbaa !20
  %14 = load ptr, ptr %3, align 8, !tbaa !11
  %15 = getelementptr inbounds nuw %struct.rb_io_buffer, ptr %14, i32 0, i32 0
  %16 = load ptr, ptr %15, align 8, !tbaa !17
  %17 = load ptr, ptr %3, align 8, !tbaa !11
  %18 = getelementptr inbounds nuw %struct.rb_io_buffer, ptr %17, i32 0, i32 1
  %19 = load i64, ptr %18, align 8, !tbaa !19
  %20 = call i64 (i64, ptr, ...) @rb_str_catf(i64 noundef %13, ptr noundef @.str.1, ptr noundef %16, i64 noundef %19)
  %21 = load ptr, ptr %3, align 8, !tbaa !11
  %22 = getelementptr inbounds nuw %struct.rb_io_buffer, ptr %21, i32 0, i32 0
  %23 = load ptr, ptr %22, align 8, !tbaa !17
  %24 = icmp eq ptr %23, null
  br i1 %24, label %25, label %28

25:                                               ; preds = %1
  %26 = load i64, ptr %4, align 8, !tbaa !20
  %27 = call i64 @rbimpl_str_cat_cstr(i64 noundef %26, ptr noundef @.str.2)
  br label %28

28:                                               ; preds = %25, %1
  %29 = load ptr, ptr %3, align 8, !tbaa !11
  %30 = getelementptr inbounds nuw %struct.rb_io_buffer, ptr %29, i32 0, i32 2
  %31 = load i32, ptr %30, align 8, !tbaa !18
  %32 = and i32 %31, 1
  %33 = icmp ne i32 %32, 0
  br i1 %33, label %34, label %37

34:                                               ; preds = %28
  %35 = load i64, ptr %4, align 8, !tbaa !20
  %36 = call i64 @rbimpl_str_cat_cstr(i64 noundef %35, ptr noundef @.str.3)
  br label %37

37:                                               ; preds = %34, %28
  %38 = load ptr, ptr %3, align 8, !tbaa !11
  %39 = getelementptr inbounds nuw %struct.rb_io_buffer, ptr %38, i32 0, i32 2
  %40 = load i32, ptr %39, align 8, !tbaa !18
  %41 = and i32 %40, 2
  %42 = icmp ne i32 %41, 0
  br i1 %42, label %43, label %46

43:                                               ; preds = %37
  %44 = load i64, ptr %4, align 8, !tbaa !20
  %45 = call i64 @rbimpl_str_cat_cstr(i64 noundef %44, ptr noundef @.str.4)
  br label %46

46:                                               ; preds = %43, %37
  %47 = load ptr, ptr %3, align 8, !tbaa !11
  %48 = getelementptr inbounds nuw %struct.rb_io_buffer, ptr %47, i32 0, i32 2
  %49 = load i32, ptr %48, align 8, !tbaa !18
  %50 = and i32 %49, 4
  %51 = icmp ne i32 %50, 0
  br i1 %51, label %52, label %55

52:                                               ; preds = %46
  %53 = load i64, ptr %4, align 8, !tbaa !20
  %54 = call i64 @rbimpl_str_cat_cstr(i64 noundef %53, ptr noundef @.str.5)
  br label %55

55:                                               ; preds = %52, %46
  %56 = load ptr, ptr %3, align 8, !tbaa !11
  %57 = getelementptr inbounds nuw %struct.rb_io_buffer, ptr %56, i32 0, i32 2
  %58 = load i32, ptr %57, align 8, !tbaa !18
  %59 = and i32 %58, 256
  %60 = icmp ne i32 %59, 0
  br i1 %60, label %61, label %64

61:                                               ; preds = %55
  %62 = load i64, ptr %4, align 8, !tbaa !20
  %63 = call i64 @rbimpl_str_cat_cstr(i64 noundef %62, ptr noundef @.str.6)
  br label %64

64:                                               ; preds = %61, %55
  %65 = load ptr, ptr %3, align 8, !tbaa !11
  %66 = getelementptr inbounds nuw %struct.rb_io_buffer, ptr %65, i32 0, i32 2
  %67 = load i32, ptr %66, align 8, !tbaa !18
  %68 = and i32 %67, 8
  %69 = icmp ne i32 %68, 0
  br i1 %69, label %70, label %73

70:                                               ; preds = %64
  %71 = load i64, ptr %4, align 8, !tbaa !20
  %72 = call i64 @rbimpl_str_cat_cstr(i64 noundef %71, ptr noundef @.str.7)
  br label %73

73:                                               ; preds = %70, %64
  %74 = load ptr, ptr %3, align 8, !tbaa !11
  %75 = getelementptr inbounds nuw %struct.rb_io_buffer, ptr %74, i32 0, i32 2
  %76 = load i32, ptr %75, align 8, !tbaa !18
  %77 = and i32 %76, 32
  %78 = icmp ne i32 %77, 0
  br i1 %78, label %79, label %82

79:                                               ; preds = %73
  %80 = load i64, ptr %4, align 8, !tbaa !20
  %81 = call i64 @rbimpl_str_cat_cstr(i64 noundef %80, ptr noundef @.str.8)
  br label %82

82:                                               ; preds = %79, %73
  %83 = load ptr, ptr %3, align 8, !tbaa !11
  %84 = getelementptr inbounds nuw %struct.rb_io_buffer, ptr %83, i32 0, i32 2
  %85 = load i32, ptr %84, align 8, !tbaa !18
  %86 = and i32 %85, 64
  %87 = icmp ne i32 %86, 0
  br i1 %87, label %88, label %91

88:                                               ; preds = %82
  %89 = load i64, ptr %4, align 8, !tbaa !20
  %90 = call i64 @rbimpl_str_cat_cstr(i64 noundef %89, ptr noundef @.str.9)
  br label %91

91:                                               ; preds = %88, %82
  %92 = load ptr, ptr %3, align 8, !tbaa !11
  %93 = getelementptr inbounds nuw %struct.rb_io_buffer, ptr %92, i32 0, i32 2
  %94 = load i32, ptr %93, align 8, !tbaa !18
  %95 = and i32 %94, 128
  %96 = icmp ne i32 %95, 0
  br i1 %96, label %97, label %100

97:                                               ; preds = %91
  %98 = load i64, ptr %4, align 8, !tbaa !20
  %99 = call i64 @rbimpl_str_cat_cstr(i64 noundef %98, ptr noundef @.str.10)
  br label %100

100:                                              ; preds = %97, %91
  %101 = load ptr, ptr %3, align 8, !tbaa !11
  %102 = getelementptr inbounds nuw %struct.rb_io_buffer, ptr %101, i32 0, i32 3
  %103 = load i64, ptr %102, align 8, !tbaa !13
  %104 = icmp ne i64 %103, 4
  br i1 %104, label %105, label %108

105:                                              ; preds = %100
  %106 = load i64, ptr %4, align 8, !tbaa !20
  %107 = call i64 @rbimpl_str_cat_cstr(i64 noundef %106, ptr noundef @.str.11)
  br label %108

108:                                              ; preds = %105, %100
  %109 = load ptr, ptr %3, align 8, !tbaa !11
  %110 = call i32 @io_buffer_validate(ptr noundef %109)
  %111 = icmp ne i32 %110, 0
  br i1 %111, label %115, label %112

112:                                              ; preds = %108
  %113 = load i64, ptr %4, align 8, !tbaa !20
  %114 = call i64 @rbimpl_str_cat_cstr(i64 noundef %113, ptr noundef @.str.12)
  br label %115

115:                                              ; preds = %112, %108
  %116 = load i64, ptr %4, align 8, !tbaa !20
  %117 = call i64 @rbimpl_str_cat_cstr(i64 noundef %116, ptr noundef @.str.13)
  call void @llvm.lifetime.end.p0(i64 8, ptr %4) #22
  call void @llvm.lifetime.end.p0(i64 8, ptr %3) #22
  ret i64 %117
}