; Function Attrs: nounwind sspstrong uwtable
define hidden i64 @rb_io_buffer_to_s(i64 noundef %0) #0 {
  %2 = tail call ptr @rb_check_typeddata(i64 noundef %0, ptr noundef nonnull @rb_io_buffer_type) #25
  %3 = tail call i64 @rb_str_new_static(ptr noundef nonnull @.str, i64 noundef 2) #25
  %4 = icmp eq i64 %0, 0
  %5 = and i64 %0, 7
  %6 = icmp ne i64 %5, 0
  %7 = or i1 %4, %6
  br i1 %7, label %11, label %8

8:                                                ; preds = %1
  %9 = inttoptr i64 %0 to ptr
  %10 = getelementptr inbounds nuw i8, ptr %9, i64 8
  br label %rb_class_of.exit

11:                                               ; preds = %1
  switch i64 %0, label %14 [
    i64 0, label %rb_class_of.exit
    i64 4, label %12
    i64 20, label %13
  ]

12:                                               ; preds = %11
  br label %rb_class_of.exit

13:                                               ; preds = %11
  br label %rb_class_of.exit

14:                                               ; preds = %11
  %15 = and i64 %0, 1
  %.not.i = icmp eq i64 %15, 0
  br i1 %.not.i, label %16, label %rb_class_of.exit

16:                                               ; preds = %14
  %17 = and i64 %0, 254
  %18 = icmp eq i64 %17, 12
  %spec.select.i = select i1 %18, ptr @rb_cSymbol, ptr @rb_cFloat
  br label %rb_class_of.exit

rb_class_of.exit:                                 ; preds = %8, %11, %12, %13, %14, %16
  %.0.in.i = phi ptr [ @rb_cNilClass, %12 ], [ @rb_cTrueClass, %13 ], [ %10, %8 ], [ @rb_cFalseClass, %11 ], [ @rb_cInteger, %14 ], [ %spec.select.i, %16 ]
  %.0.i = load i64, ptr %.0.in.i, align 8, !tbaa !22
  %19 = tail call i64 @rb_class_name(i64 noundef %.0.i) #25
  %20 = tail call i64 @rb_str_append(i64 noundef %3, i64 noundef %19) #25
  %21 = load ptr, ptr %2, align 8, !tbaa !14
  %22 = getelementptr inbounds nuw i8, ptr %2, i64 8
  %23 = load i64, ptr %22, align 8, !tbaa !16
  %24 = tail call i64 (i64, ptr, ...) @rb_str_catf(i64 noundef %3, ptr noundef nonnull @.str.1, ptr noundef %21, i64 noundef %23) #25
  %25 = load ptr, ptr %2, align 8, !tbaa !14
  %26 = icmp eq ptr %25, null
  br i1 %26, label %27, label %29

27:                                               ; preds = %rb_class_of.exit
  %28 = tail call i64 @rb_str_cat(i64 noundef %3, ptr noundef nonnull @.str.2, i64 noundef 5) #25
  br label %29

29:                                               ; preds = %27, %rb_class_of.exit
  %30 = getelementptr inbounds nuw i8, ptr %2, i64 16
  %31 = load i32, ptr %30, align 8, !tbaa !15
  %32 = and i32 %31, 1
  %.not = icmp eq i32 %32, 0
  br i1 %.not, label %35, label %33

33:                                               ; preds = %29
  %34 = tail call i64 @rb_str_cat(i64 noundef %3, ptr noundef nonnull @.str.3, i64 noundef 9) #25
  %.pre = load i32, ptr %30, align 8, !tbaa !15
  br label %35

35:                                               ; preds = %33, %29
  %36 = phi i32 [ %.pre, %33 ], [ %31, %29 ]
  %37 = and i32 %36, 2
  %.not28 = icmp eq i32 %37, 0
  br i1 %.not28, label %40, label %38

38:                                               ; preds = %35
  %39 = tail call i64 @rb_str_cat(i64 noundef %3, ptr noundef nonnull @.str.4, i64 noundef 9) #25
  %.pre42 = load i32, ptr %30, align 8, !tbaa !15
  br label %40

40:                                               ; preds = %38, %35
  %41 = phi i32 [ %.pre42, %38 ], [ %36, %35 ]
  %42 = and i32 %41, 4
  %.not29 = icmp eq i32 %42, 0
  br i1 %.not29, label %45, label %43

43:                                               ; preds = %40
  %44 = tail call i64 @rb_str_cat(i64 noundef %3, ptr noundef nonnull @.str.5, i64 noundef 7) #25
  %.pre43 = load i32, ptr %30, align 8, !tbaa !15
  br label %45

45:                                               ; preds = %43, %40
  %46 = phi i32 [ %.pre43, %43 ], [ %41, %40 ]
  %47 = and i32 %46, 256
  %.not30 = icmp eq i32 %47, 0
  br i1 %.not30, label %50, label %48

48:                                               ; preds = %45
  %49 = tail call i64 @rb_str_cat(i64 noundef %3, ptr noundef nonnull @.str.6, i64 noundef 5) #25
  %.pre44 = load i32, ptr %30, align 8, !tbaa !15
  br label %50

50:                                               ; preds = %48, %45
  %51 = phi i32 [ %.pre44, %48 ], [ %46, %45 ]
  %52 = and i32 %51, 8
  %.not31 = icmp eq i32 %52, 0
  br i1 %.not31, label %55, label %53

53:                                               ; preds = %50
  %54 = tail call i64 @rb_str_cat(i64 noundef %3, ptr noundef nonnull @.str.7, i64 noundef 7) #25
  %.pre45 = load i32, ptr %30, align 8, !tbaa !15
  br label %55

55:                                               ; preds = %53, %50
  %56 = phi i32 [ %.pre45, %53 ], [ %51, %50 ]
  %57 = and i32 %56, 32
  %.not32 = icmp eq i32 %57, 0
  br i1 %.not32, label %60, label %58

58:                                               ; preds = %55
  %59 = tail call i64 @rb_str_cat(i64 noundef %3, ptr noundef nonnull @.str.8, i64 noundef 7) #25
  %.pre46 = load i32, ptr %30, align 8, !tbaa !15
  br label %60

60:                                               ; preds = %58, %55
  %61 = phi i32 [ %.pre46, %58 ], [ %56, %55 ]
  %62 = and i32 %61, 64
  %.not33 = icmp eq i32 %62, 0
  br i1 %.not33, label %65, label %63

63:                                               ; preds = %60
  %64 = tail call i64 @rb_str_cat(i64 noundef %3, ptr noundef nonnull @.str.9, i64 noundef 8) #25
  %.pre47 = load i32, ptr %30, align 8, !tbaa !15
  br label %65

65:                                               ; preds = %63, %60
  %66 = phi i32 [ %.pre47, %63 ], [ %61, %60 ]
  %67 = and i32 %66, 128
  %.not34 = icmp eq i32 %67, 0
  br i1 %.not34, label %70, label %68

68:                                               ; preds = %65
  %69 = tail call i64 @rb_str_cat(i64 noundef %3, ptr noundef nonnull @.str.10, i64 noundef 9) #25
  br label %70

70:                                               ; preds = %68, %65
  %71 = getelementptr inbounds nuw i8, ptr %2, i64 24
  %72 = load i64, ptr %71, align 8, !tbaa !7
  %.not35 = icmp eq i64 %72, 4
  br i1 %.not35, label %io_buffer_validate.exit.thread, label %73

73:                                               ; preds = %70
  %74 = tail call i64 @rb_str_cat(i64 noundef %3, ptr noundef nonnull @.str.11, i64 noundef 6) #25
  %.pr = load i64, ptr %71, align 8, !tbaa !7
  %.not.i37 = icmp eq i64 %.pr, 4
  br i1 %.not.i37, label %io_buffer_validate.exit.thread, label %io_buffer_validate.exit

io_buffer_validate.exit:                          ; preds = %73
  %75 = load ptr, ptr %2, align 8, !tbaa !14
  %76 = load i64, ptr %22, align 8, !tbaa !16
  %77 = tail call fastcc i32 @io_buffer_validate_slice(i64 noundef %.pr, ptr noundef %75, i64 noundef %76)
  %.not36 = icmp eq i32 %77, 0
  br i1 %.not36, label %78, label %io_buffer_validate.exit.thread

78:                                               ; preds = %io_buffer_validate.exit
  %79 = tail call i64 @rb_str_cat(i64 noundef %3, ptr noundef nonnull @.str.12, i64 noundef 8) #25
  br label %io_buffer_validate.exit.thread

io_buffer_validate.exit.thread:                   ; preds = %70, %73, %78, %io_buffer_validate.exit
  %80 = tail call i64 @rb_str_cat(i64 noundef %3, ptr noundef nonnull @.str.13, i64 noundef 1) #25
  ret i64 %80
}